; Function Attrs: nounwind uwtable
define noalias noundef ptr @Proof_CollectUsedIter(ptr noundef readonly captures(none) %0, ptr noundef readonly captures(none) %1, i32 %2) local_unnamed_addr #3 {
Abc_Clock.exit:
  %3 = alloca %struct.timespec, align 8
  %4 = alloca %struct.timespec, align 8
  call void @llvm.lifetime.start.p0(i64 16, ptr nonnull %4) #18
  %5 = call i32 @clock_gettime(i32 noundef 1, ptr noundef nonnull %4) #18
  call void @llvm.lifetime.end.p0(i64 16, ptr nonnull %4) #18
  %6 = call noalias dereferenceable_or_null(16) ptr @malloc(i64 noundef 16) #17
  %7 = getelementptr inbounds nuw i8, ptr %6, i64 4
  store i32 0, ptr %7, align 4, !tbaa !14
  store i32 1000, ptr %6, align 8, !tbaa !23
  %8 = call noalias dereferenceable_or_null(4000) ptr @malloc(i64 noundef 4000) #17
  %9 = getelementptr inbounds nuw i8, ptr %6, i64 8
  store ptr %8, ptr %9, align 8, !tbaa !17
  %10 = call noalias dereferenceable_or_null(16) ptr @malloc(i64 noundef 16) #17
  %11 = getelementptr inbounds nuw i8, ptr %10, i64 4
  store i32 0, ptr %11, align 4, !tbaa !14
  store i32 1000, ptr %10, align 8, !tbaa !23
  %12 = call noalias dereferenceable_or_null(4000) ptr @malloc(i64 noundef 4000) #17
  %13 = getelementptr inbounds nuw i8, ptr %10, i64 8
  store ptr %12, ptr %13, align 8, !tbaa !17
  %14 = getelementptr i8, ptr %1, i64 4
  %.val2631 = load i32, ptr %14, align 4, !tbaa !14
  %15 = icmp sgt i32 %.val2631, 0
  br i1 %15, label %.lr.ph, label %.critedge

.lr.ph:                                           ; preds = %Abc_Clock.exit
  %16 = getelementptr i8, ptr %1, i64 8
  br label %17

17:                                               ; preds = %.lr.ph, %22
  %.val2634 = phi i32 [ %.val2631, %.lr.ph ], [ %.val26, %22 ]
  %indvars.iv = phi i64 [ 0, %.lr.ph ], [ %indvars.iv.next, %22 ]
  %.val27 = load ptr, ptr %16, align 8, !tbaa !17
  %18 = getelementptr inbounds nuw i32, ptr %.val27, i64 %indvars.iv
  %19 = load i32, ptr %18, align 4, !tbaa !18
  %20 = icmp sgt i32 %19, -1
  br i1 %20, label %21, label %22

21:                                               ; preds = %17
  call void @Proof_CollectUsed_iter(ptr noundef %0, i32 noundef %19, ptr noundef nonnull %6, ptr noundef nonnull %10)
  %.val26.pre = load i32, ptr %14, align 4, !tbaa !14
  br label %22

22:                                               ; preds = %17, %21
  %.val26 = phi i32 [ %.val2634, %17 ], [ %.val26.pre, %21 ]
  %indvars.iv.next = add nuw nsw i64 %indvars.iv, 1
  %23 = sext i32 %.val26 to i64
  %24 = icmp slt i64 %indvars.iv.next, %23
  br i1 %24, label %17, label %.critedge.loopexit, !llvm.loop !26

.critedge.loopexit:                               ; preds = %22
  %.pre = load ptr, ptr %13, align 8, !tbaa !17
  br label %.critedge

.critedge:                                        ; preds = %.critedge.loopexit, %Abc_Clock.exit
  %25 = phi ptr [ %.pre, %.critedge.loopexit ], [ %12, %Abc_Clock.exit ]
  %.not.i = icmp eq ptr %25, null
  br i1 %.not.i, label %Vec_IntFree.exit, label %26

26:                                               ; preds = %.critedge
  call void @free(ptr noundef nonnull %25) #18
  br label %Vec_IntFree.exit

Vec_IntFree.exit:                                 ; preds = %.critedge, %26
  call void @free(ptr noundef nonnull %10) #18
  call void @llvm.lifetime.start.p0(i64 16, ptr nonnull %3) #18
  %27 = call i32 @clock_gettime(i32 noundef 1, ptr noundef nonnull %3) #18
  call void @llvm.lifetime.end.p0(i64 16, ptr nonnull %3) #18
  %.val28 = load ptr, ptr %9, align 8, !tbaa !17
  %.val = load i32, ptr %7, align 4, !tbaa !14
  call void @Abc_MergeSort(ptr noundef %.val28, i32 noundef %.val) #18
  ret ptr %6
}